target datalayout = "e-m:e-p270:32:32-p271:32:32-p272:64:64-i64:64-i128:128-f80:128-n8:16:32:64-S128"
target triple = "x86_64-pc-linux-gnu"

%"class.google::protobuf::StringPiece" = type { ptr, i64 }

; Function Attrs: inlinehint mustprogress nounwind uwtable
define linkonce_odr noundef nonnull align 8 dereferenceable(8) ptr @_ZSt3minImERKT_S2_S2_(ptr noundef nonnull align 8 dereferenceable(8) %0, ptr noundef nonnull align 8 dereferenceable(8) %1) #5 comdat {
  %3 = alloca ptr, align 8
  %4 = alloca ptr, align 8
  %5 = alloca ptr, align 8
  store ptr %0, ptr %4, align 8, !tbaa !23
  store ptr %1, ptr %5, align 8, !tbaa !23
  %6 = load ptr, ptr %5, align 8, !tbaa !23
  %7 = load i64, ptr %6, align 8, !tbaa !15
  %8 = load ptr, ptr %4, align 8, !tbaa !23
  %9 = load i64, ptr %8, align 8, !tbaa !15
  %10 = icmp ult i64 %7, %9
  br i1 %10, label %11, label %13

11:                                               ; preds = %2
  %12 = load ptr, ptr %5, align 8, !tbaa !23
  store ptr %12, ptr %3, align 8
  br label %15

13:                                               ; preds = %2
  %14 = load ptr, ptr %4, align 8, !tbaa !23
  store ptr %14, ptr %3, align 8
  br label %15

15:                                               ; preds = %13, %11
  %16 = load ptr, ptr %3, align 8
  ret ptr %16
}

; Function Attrs: mustprogress uwtable
define noundef i64 @_ZNK6google8protobuf11StringPiece5rfindEcm(ptr noundef nonnull align 8 dereferenceable(16) %0, i8 noundef signext %1, i64 noundef %2) #0 align 2 {
  %4 = alloca i64, align 8
  %5 = alloca ptr, align 8
  %6 = alloca i8, align 1
  %7 = alloca i64, align 8
  %8 = alloca i64, align 8
  %9 = alloca i64, align 8
  %10 = alloca i32, align 4
  store ptr %0, ptr %5, align 8, !tbaa !8
  store i8 %1, ptr %6, align 1, !tbaa !28
  store i64 %2, ptr %7, align 8, !tbaa !15
  %11 = load ptr, ptr %5, align 8
  %12 = getelementptr inbounds nuw %"class.google::protobuf::StringPiece", ptr %11, i32 0, i32 1
  %13 = load i64, ptr %12, align 8, !tbaa !14
  %14 = icmp sle i64 %13, 0
  br i1 %14, label %15, label %16

15:                                               ; preds = %3
  store i64 -1, ptr %4, align 8
  br label %45

16:                                               ; preds = %3
  call void @llvm.lifetime.start.p0(i64 8, ptr %8) #13
  call void @llvm.lifetime.start.p0(i64 8, ptr %9) #13
  %17 = getelementptr inbounds nuw %"class.google::protobuf::StringPiece", ptr %11, i32 0, i32 1
  %18 = load i64, ptr %17, align 8, !tbaa !14
  %19 = sub nsw i64 %18, 1
  store i64 %19, ptr %9, align 8, !tbaa !15
  %20 = call noundef nonnull align 8 dereferenceable(8) ptr @_ZSt3minImERKT_S2_S2_(ptr noundef nonnull align 8 dereferenceable(8) %7, ptr noundef nonnull align 8 dereferenceable(8) %9)
  %21 = load i64, ptr %20, align 8, !tbaa !15
  call void @llvm.lifetime.end.p0(i64 8, ptr %9) #13
  store i64 %21, ptr %8, align 8, !tbaa !15
  br label %22

22:                                               ; preds = %39, %16
  %23 = load i64, ptr %8, align 8, !tbaa !15
  %24 = icmp sge i64 %23, 0
  br i1 %24, label %26, label %25

25:                                               ; preds = %22
  store i32 2, ptr %10, align 4
  br label %42

26:                                               ; preds = %22
  %27 = getelementptr inbounds nuw %"class.google::protobuf::StringPiece", ptr %11, i32 0, i32 0
  %28 = load ptr, ptr %27, align 8, !tbaa !10
  %29 = load i64, ptr %8, align 8, !tbaa !15
  %30 = getelementptr inbounds i8, ptr %28, i64 %29
  %31 = load i8, ptr %30, align 1, !tbaa !28
  %32 = sext i8 %31 to i32
  %33 = load i8, ptr %6, align 1, !tbaa !28
  %34 = sext i8 %33 to i32
  %35 = icmp eq i32 %32, %34
  br i1 %35, label %36, label %38

36:                                               ; preds = %26
  %37 = load i64, ptr %8, align 8, !tbaa !15
  store i64 %37, ptr %4, align 8
  store i32 1, ptr %10, align 4
  br label %42

38:                                               ; preds = %26
  br label %39

39:                                               ; preds = %38
  %40 = load i64, ptr %8, align 8, !tbaa !15
  %41 = add nsw i64 %40, -1
  store i64 %41, ptr %8, align 8, !tbaa !15
  br label %22, !llvm.loop !29

42:                                               ; preds = %36, %25
  call void @llvm.lifetime.end.p0(i64 8, ptr %8) #13
  %43 = load i32, ptr %10, align 4
  switch i32 %43, label %47 [
    i32 2, label %44
    i32 1, label %45
  ]

44:                                               ; preds = %42
  store i64 -1, ptr %4, align 8
  br label %45

45:                                               ; preds = %44, %42, %15
  %46 = load i64, ptr %4, align 8
  ret i64 %46

47:                                               ; preds = %42
  unreachable
}