; Function Attrs: mustprogress nofree norecurse nosync nounwind willreturn memory(read, inaccessiblemem: none) uwtable
define noundef range(i64 -1, 9223372036854775807) i64 @_ZNK6google8protobuf11StringPiece5rfindEcm(ptr noundef nonnull readonly align 8 captures(none) dereferenceable(16) %0, i8 noundef signext %1, i64 noundef %2) local_unnamed_addr #10 align 2 {
  %4 = getelementptr inbounds nuw i8, ptr %0, i64 8
  %5 = load i64, ptr %4, align 8, !tbaa !10
  %6 = icmp slt i64 %5, 1
  br i1 %6, label %.loopexit, label %.lr.ph

.lr.ph:                                           ; preds = %3
  %7 = add nsw i64 %5, -1
  %spec.select12 = tail call i64 @llvm.umin.i64(i64 %7, i64 %2)
  %8 = load ptr, ptr %0, align 8, !tbaa !3
  br label %9

9:                                                ; preds = %.lr.ph, %select.unfold
  %.0713 = phi i64 [ %spec.select12, %.lr.ph ], [ %13, %select.unfold ]
  %10 = getelementptr inbounds nuw i8, ptr %8, i64 %.0713
  %11 = load i8, ptr %10, align 1, !tbaa !16
  %12 = icmp eq i8 %11, %1
  br i1 %12, label %.loopexit, label %select.unfold

select.unfold:                                    ; preds = %9
  %13 = add nsw i64 %.0713, -1
  %14 = icmp slt i64 %.0713, 1
  br i1 %14, label %.loopexit, label %9, !llvm.loop !17

.loopexit:                                        ; preds = %9, %select.unfold, %3
  %.08 = phi i64 [ -1, %3 ], [ %.0713, %9 ], [ -1, %select.unfold ]
  ret i64 %.08
}